; Function Attrs: null_pointer_is_valid sspstrong uwtable
define hidden noundef i32 @mapi_dissect_struct_RegisterNotification_repl(ptr noundef %0, i32 noundef returned %1, ptr noundef readnone captures(none) %2, ptr noundef %3, ptr noundef captures(none) %4, ptr noundef readnone captures(none) %5, i32 noundef %6, i32 noundef %7) local_unnamed_addr #0 {
  %9 = getelementptr inbounds nuw i8, ptr %4, i64 26
  %10 = load i8, ptr %9, align 2, !range !9, !noundef !10
  store i8 1, ptr %9, align 2
  %.not = icmp eq ptr %3, null
  br i1 %.not, label %13, label %11

11:                                               ; preds = %8
  %12 = tail call ptr @proto_tree_add_item(ptr noundef nonnull %3, i32 noundef %6, ptr noundef %0, i32 noundef %1, i32 noundef -1, i32 noundef 0)
  br label %13

13:                                               ; preds = %11, %8
  %.0 = phi ptr [ %12, %11 ], [ null, %8 ]
  tail call void @proto_item_set_len(ptr noundef %.0, i32 noundef 0)
  store i8 %10, ptr %9, align 2
  ret i32 %1
}